target datalayout = "e-m:e-p270:32:32-p271:32:32-p272:64:64-i64:64-i128:128-f80:128-n8:16:32:64-S128"
target triple = "x86_64-pc-linux-gnu"

%struct.curl_trc_feat = type { ptr, i32 }
%struct.connectdata = type { %struct.Curl_llist_node, ptr, ptr, i64, ptr, i64, ptr, ptr, %struct.hostname, ptr, ptr, %struct.hostname, %struct.proxy_info, %struct.proxy_info, %struct.ip_quadruple, %struct.ip_quadruple, ptr, ptr, ptr, ptr, ptr, %struct.curltime, %struct.curltime, %struct.curltime, [2 x i32], [2 x ptr], [2 x ptr], [2 x ptr], %struct.anon, %struct.easy_pollset, %struct.ssl_primary_config, %struct.ssl_primary_config, %struct.ConnectBits, ptr, ptr, %struct.curltime, i32, i32, %struct.Curl_llist, i32, i32, %struct.ntlmdata, %struct.ntlmdata, %union.anon.1, ptr, ptr, i16, i32, i32, i32, i32, i16, i16, i8, i8, i8, i8, i8, i8, i8 }
%struct.Curl_llist_node = type { ptr, ptr, ptr, ptr }
%struct.hostname = type { ptr, ptr, ptr, ptr }
%struct.proxy_info = type { %struct.hostname, i32, i8, ptr, ptr }
%struct.ip_quadruple = type { [46 x i8], [46 x i8], i32, i32 }
%struct.anon = type { [2 x %struct.curltime], i32 }
%struct.easy_pollset = type { [5 x i32], i32, [5 x i8] }
%struct.ssl_primary_config = type { ptr, ptr, ptr, ptr, ptr, ptr, ptr, ptr, ptr, ptr, ptr, ptr, ptr, ptr, i8, i32, i8, i8 }
%struct.ConnectBits = type { i64 }
%struct.curltime = type { i64, i32 }
%struct.Curl_llist = type { ptr, ptr, ptr, i64 }
%struct.ntlmdata = type { i32, [8 x i8], i32, ptr }
%union.anon.1 = type { %struct.ftp_conn }
%struct.ftp_conn = type { %struct.pingpong, ptr, ptr, ptr, ptr, ptr, ptr, ptr, i8, i64, ptr, i64, i32, i32, i32, i32, i32, i16, i8, i8, i8, i8, i8 }
%struct.pingpong = type { i64, i8, ptr, i64, i64, %struct.curltime, i64, %struct.dynbuf, %struct.dynbuf, i64, i64, ptr, ptr }
%struct.dynbuf = type { ptr, i64, i64, i64 }
%struct.Curl_easy = type { i32, i64, i64, ptr, %struct.Curl_llist_node, %struct.Curl_llist_node, i32, i32, %struct.Curl_message, %struct.easy_pollset, %struct.Names, ptr, ptr, ptr, ptr, %struct.SingleRequest, %struct.UserDefined, ptr, ptr, ptr, %struct.Progress, %struct.UrlState, ptr, %struct.PureInfo, %struct.curl_tlssessioninfo }
%struct.Curl_message = type { %struct.Curl_llist_node, %struct.CURLMsg }
%struct.CURLMsg = type { i32, ptr, %union.anon }
%union.anon = type { ptr }
%struct.Names = type { ptr, i32 }
%struct.SingleRequest = type <{ i64, i64, i64, i64, %struct.curltime, i32, i32, i32, i32, i64, i32, i32, i8, i8, [2 x i8], i32, ptr, ptr, %struct.bufq, i64, i64, ptr, ptr, %union.anon.0, ptr, i8, i32, [3 x i8] }>
%struct.bufq = type { ptr, ptr, ptr, ptr, i64, i64, i64, i32 }
%union.anon.0 = type { ptr }
%struct.UserDefined = type <{ ptr, ptr, ptr, ptr, ptr, ptr, i64, i64, i64, ptr, ptr, i64, ptr, ptr, ptr, ptr, ptr, ptr, ptr, ptr, ptr, ptr, ptr, ptr, ptr, ptr, ptr, ptr, ptr, ptr, ptr, ptr, ptr, ptr, ptr, i64, i64, i64, i64, i64, i64, i64, i64, i64, ptr, ptr, %struct.curl_mimepart, ptr, ptr, ptr, i64, %struct.ssl_config_data, %struct.ssl_config_data, ptr, i16, i8, i8, %struct.ssl_general_config, i32, i32, i32, [4 x i8], ptr, ptr, i64, i32, i8, i8, i8, i8, ptr, ptr, ptr, i32, [4 x i8], [74 x ptr], [8 x ptr], i32, i32, i32, [4 x i8], ptr, i32, [4 x i8], ptr, ptr, ptr, ptr, ptr, i32, i32, i32, i32, i32, i32, i32, i32, i64, ptr, ptr, i64, ptr, i64, ptr, ptr, ptr, ptr, i32, i16, i16, i16, i8, i8, i8, i8, i8, i8, i8, i8, i64, [6 x i8] }>
%struct.curl_mimepart = type { ptr, ptr, i32, i32, ptr, ptr, ptr, ptr, ptr, ptr, ptr, ptr, ptr, ptr, ptr, i64, %struct.mime_state, ptr, %struct.mime_encoder_state, i64 }
%struct.mime_state = type { i32, ptr, i64 }
%struct.mime_encoder_state = type { i64, i64, i64, [256 x i8] }
%struct.ssl_config_data = type { %struct.ssl_primary_config, i64, ptr, ptr, ptr, ptr, ptr, ptr, ptr, i16 }
%struct.ssl_general_config = type { i32 }
%struct.Progress = type { i64, %struct.pgrs_dir, %struct.pgrs_dir, i64, i64, i32, i32, i64, i64, i64, i64, i64, i64, i64, i64, i64, %struct.curltime, %struct.curltime, %struct.curltime, %struct.curltime, %struct.curltime, [6 x i64], [6 x %struct.curltime], i32, i8 }
%struct.pgrs_dir = type { i64, i64, i64, %struct.pgrs_measure }
%struct.pgrs_measure = type { %struct.curltime, i64 }
%struct.UrlState = type { %struct.curltime, i64, i64, %struct.dynbuf, ptr, i64, ptr, i32, i32, i32, ptr, i32, i64, i32, ptr, %struct.digestdata, %struct.digestdata, %struct.auth, %struct.auth, %struct.Curl_async, ptr, i8, %struct.curltime, %struct.Curl_tree, %struct.Curl_llist, [15 x %struct.time_node], ptr, ptr, i64, i64, i64, i64, [32 x i8], i64, ptr, ptr, ptr, %struct.urlpieces, ptr, ptr, ptr, ptr, ptr, i64, %struct.dynbuf, %struct.Curl_llist, [2 x %struct.curl_header], ptr, i32, ptr, ptr, %struct.store_netrc, %struct.dynamically_allocated_data, i8, i8, i8, i8, i32 }
%struct.digestdata = type { ptr, ptr, ptr, ptr, ptr, ptr, i32, i8, i8 }
%struct.auth = type { i64, i64, i64, i8 }
%struct.Curl_async = type { ptr, ptr, ptr, ptr, i32, i32, i8 }
%struct.Curl_tree = type { ptr, ptr, ptr, ptr, %struct.curltime, ptr }
%struct.time_node = type { %struct.Curl_llist_node, %struct.curltime, i32 }
%struct.urlpieces = type { ptr, ptr, ptr, ptr, ptr, ptr, ptr, ptr }
%struct.curl_header = type { ptr, ptr, i64, i64, i32, ptr }
%struct.store_netrc = type { %struct.dynbuf, ptr, i8 }
%struct.dynamically_allocated_data = type { ptr, ptr, ptr, ptr, ptr, ptr, ptr, ptr, ptr, ptr, ptr, ptr, ptr, ptr }
%struct.PureInfo = type { i32, i32, i32, i64, i64, i64, i64, i64, i64, i64, ptr, ptr, i64, i32, %struct.ip_quadruple, i32, ptr, i32, %struct.curl_certinfo, i32, i8 }
%struct.curl_certinfo = type { i32, ptr }
%struct.curl_tlssessioninfo = type { i32, ptr }

@Curl_trc_feat_smtp = external global %struct.curl_trc_feat, align 8
@.str.69 = private unnamed_addr constant [30 x i8] c"smtp_setup_connection() -> %d\00", align 1
@Curl_ccalloc = external global ptr, align 8

; Function Attrs: nounwind uwtable
define internal i32 @smtp_init(ptr noundef %0) #0 {
  %2 = alloca ptr, align 8
  %3 = alloca i32, align 4
  %4 = alloca ptr, align 8
  store ptr %0, ptr %2, align 8, !tbaa !3
  call void @llvm.lifetime.start.p0(i64 4, ptr %3) #7
  store i32 0, ptr %3, align 4, !tbaa !10
  call void @llvm.lifetime.start.p0(i64 8, ptr %4) #7
  %5 = load ptr, ptr @Curl_ccalloc, align 8, !tbaa !91
  %6 = call ptr %5(i64 noundef 1, i64 noundef 48)
  %7 = load ptr, ptr %2, align 8, !tbaa !3
  %8 = getelementptr inbounds nuw %struct.Curl_easy, ptr %7, i32 0, i32 15
  %9 = getelementptr inbounds nuw %struct.SingleRequest, ptr %8, i32 0, i32 23
  store ptr %6, ptr %9, align 8, !tbaa !88
  store ptr %6, ptr %4, align 8, !tbaa !89
  %10 = load ptr, ptr %4, align 8, !tbaa !89
  %11 = icmp ne ptr %10, null
  br i1 %11, label %13, label %12

12:                                               ; preds = %1
  store i32 27, ptr %3, align 4, !tbaa !10
  br label %13

13:                                               ; preds = %12, %1
  %14 = load i32, ptr %3, align 4, !tbaa !10
  call void @llvm.lifetime.end.p0(i64 8, ptr %4) #7
  call void @llvm.lifetime.end.p0(i64 4, ptr %3) #7
  ret i32 %14
}

; Function Attrs: nounwind uwtable
define internal i32 @smtp_setup_connection(ptr noundef %0, ptr noundef %1) #0 {
  %3 = alloca ptr, align 8
  %4 = alloca ptr, align 8
  %5 = alloca i32, align 4
  store ptr %0, ptr %3, align 8, !tbaa !3
  store ptr %1, ptr %4, align 8, !tbaa !8
  call void @llvm.lifetime.start.p0(i64 4, ptr %5) #7
  %6 = load ptr, ptr %4, align 8, !tbaa !8
  %7 = getelementptr inbounds nuw %struct.connectdata, ptr %6, i32 0, i32 32
  %8 = load i64, ptr %7, align 8
  %9 = and i64 %8, -134217729
  %10 = or i64 %9, 0
  store i64 %10, ptr %7, align 8
  %11 = load ptr, ptr %3, align 8, !tbaa !3
  %12 = call i32 @smtp_init(ptr noundef %11)
  store i32 %12, ptr %5, align 4, !tbaa !10
  br label %13

13:                                               ; preds = %2
  %14 = load ptr, ptr %3, align 8, !tbaa !3
  %15 = icmp ne ptr %14, null
  br i1 %15, label %16, label %45

16:                                               ; preds = %13
  %17 = load ptr, ptr %3, align 8, !tbaa !3
  %18 = getelementptr inbounds nuw %struct.Curl_easy, ptr %17, i32 0, i32 16
  %19 = getelementptr inbounds nuw %struct.UserDefined, ptr %18, i32 0, i32 119
  %20 = load i64, ptr %19, align 2
  %21 = lshr i64 %20, 31
  %22 = and i64 %21, 1
  %23 = trunc i64 %22 to i32
  %24 = icmp ne i32 %23, 0
  br i1 %24, label %25, label %45

25:                                               ; preds = %16
  %26 = load ptr, ptr %3, align 8, !tbaa !3
  %27 = getelementptr inbounds nuw %struct.Curl_easy, ptr %26, i32 0, i32 21
  %28 = getelementptr inbounds nuw %struct.UrlState, ptr %27, i32 0, i32 50
  %29 = load ptr, ptr %28, align 8, !tbaa !12
  %30 = icmp ne ptr %29, null
  br i1 %30, label %31, label %39

31:                                               ; preds = %25
  %32 = load ptr, ptr %3, align 8, !tbaa !3
  %33 = getelementptr inbounds nuw %struct.Curl_easy, ptr %32, i32 0, i32 21
  %34 = getelementptr inbounds nuw %struct.UrlState, ptr %33, i32 0, i32 50
  %35 = load ptr, ptr %34, align 8, !tbaa !12
  %36 = getelementptr inbounds nuw %struct.curl_trc_feat, ptr %35, i32 0, i32 1
  %37 = load i32, ptr %36, align 8, !tbaa !79
  %38 = icmp sge i32 %37, 1
  br i1 %38, label %39, label %45

39:                                               ; preds = %31, %25
  %40 = load i32, ptr getelementptr inbounds nuw (%struct.curl_trc_feat, ptr @Curl_trc_feat_smtp, i32 0, i32 1), align 8, !tbaa !79
  %41 = icmp sge i32 %40, 1
  br i1 %41, label %42, label %45

42:                                               ; preds = %39
  %43 = load ptr, ptr %3, align 8, !tbaa !3
  %44 = load i32, ptr %5, align 4, !tbaa !10
  call void (ptr, ptr, ...) @Curl_trc_smtp(ptr noundef %43, ptr noundef @.str.69, i32 noundef %44)
  br label %45

45:                                               ; preds = %42, %39, %31, %16, %13
  br label %46

46:                                               ; preds = %45
  br label %47

47:                                               ; preds = %46
  %48 = load i32, ptr %5, align 4, !tbaa !10
  call void @llvm.lifetime.end.p0(i64 4, ptr %5) #7
  ret i32 %48
}