; Function Attrs: nounwind uwtable
define internal range(i32 0, 28) i32 @smtp_setup_connection(ptr noundef initializes((440, 448)) %0, ptr noundef captures(none) %1) #0 {
  %3 = getelementptr inbounds nuw i8, ptr %1, i64 952
  %4 = load i64, ptr %3, align 8
  %5 = and i64 %4, -134217729
  store i64 %5, ptr %3, align 8
  %6 = load ptr, ptr @Curl_ccalloc, align 8, !tbaa !3
  %7 = tail call ptr %6(i64 noundef 1, i64 noundef 48) #9
  %8 = getelementptr inbounds nuw i8, ptr %0, i64 440
  store ptr %7, ptr %8, align 8, !tbaa !7
  %.not.i = icmp eq ptr %7, null
  %spec.select.i = select i1 %.not.i, i32 27, i32 0
  %9 = getelementptr inbounds nuw i8, ptr %0, i64 2658
  %10 = load i64, ptr %9, align 2
  %11 = and i64 %10, 2147483648
  %.not10 = icmp eq i64 %11, 0
  br i1 %.not10, label %23, label %12

12:                                               ; preds = %2
  %13 = getelementptr inbounds nuw i8, ptr %0, i64 4864
  %14 = load ptr, ptr %13, align 8, !tbaa !8
  %.not11 = icmp eq ptr %14, null
  br i1 %.not11, label %21, label %15

15:                                               ; preds = %12
  %16 = getelementptr inbounds nuw i8, ptr %14, i64 8
  %17 = load i32, ptr %16, align 8, !tbaa !77
  %18 = icmp sgt i32 %17, 0
  %19 = load i32, ptr getelementptr inbounds nuw (i8, ptr @Curl_trc_feat_smtp, i64 8), align 8
  %20 = icmp sgt i32 %19, 0
  %or.cond = select i1 %18, i1 %20, i1 false
  br i1 %or.cond, label %22, label %23

21:                                               ; preds = %12
  %.old = load i32, ptr getelementptr inbounds nuw (i8, ptr @Curl_trc_feat_smtp, i64 8), align 8, !tbaa !77
  %.old1 = icmp sgt i32 %.old, 0
  br i1 %.old1, label %22, label %23

22:                                               ; preds = %15, %21
  tail call void (ptr, ptr, ...) @Curl_trc_smtp(ptr noundef nonnull %0, ptr noundef nonnull @.str.69, i32 noundef %spec.select.i) #9
  br label %23

23:                                               ; preds = %22, %21, %15, %2
  ret i32 %spec.select.i
}